; Function Attrs: mustprogress uwtable
define void @_ZNK32pxrInternal_v0_24__pxrReserved__7VtValue11GetTypeNameB5cxx11Ev(ptr dead_on_unwind noalias writable sret(%"class.std::__cxx11::basic_string") align 8 %0, ptr noundef nonnull align 8 dereferenceable(16) %1) local_unnamed_addr #0 align 2 personality ptr @__gxx_personality_v0 {
  %3 = alloca %"class.pxrInternal_v0_24__pxrReserved__::TfType", align 8
  %4 = getelementptr inbounds nuw i8, ptr %1, i64 8
  %5 = load ptr, ptr %4, align 8
  %6 = ptrtoint ptr %5 to i64
  %7 = and i64 %6, 4
  %.not = icmp eq i64 %7, 0
  br i1 %.not, label %11, label %8

8:                                                ; preds = %2
  %9 = tail call ptr @_ZNK32pxrInternal_v0_24__pxrReserved__7VtValue7GetTypeEv(ptr noundef nonnull align 8 dereferenceable(16) %1)
  store ptr %9, ptr %3, align 8
  %10 = call noundef nonnull align 8 dereferenceable(32) ptr @_ZNK32pxrInternal_v0_24__pxrReserved__6TfType11GetTypeNameB5cxx11Ev(ptr noundef nonnull align 8 dereferenceable(8) %3)
  call void @_ZNSt7__cxx1112basic_stringIcSt11char_traitsIcESaIcEEC1ERKS4_(ptr noundef nonnull align 8 dereferenceable(32) %0, ptr noundef nonnull align 8 dereferenceable(32) %10)
  br label %24

11:                                               ; preds = %2
  %.not.i = icmp eq ptr %5, null
  br i1 %.not.i, label %_ZNK32pxrInternal_v0_24__pxrReserved__7VtValue9GetTypeidEv.exit, label %12

12:                                               ; preds = %11
  %13 = and i64 %6, -8
  %14 = inttoptr i64 %13 to ptr
  %15 = getelementptr inbounds nuw i8, ptr %14, i64 160
  %16 = load ptr, ptr %15, align 8
  %17 = tail call noundef nonnull align 8 dereferenceable(16) ptr %16(ptr noundef nonnull align 8 dereferenceable(8) %1)
  br label %_ZNK32pxrInternal_v0_24__pxrReserved__7VtValue9GetTypeidEv.exit

_ZNK32pxrInternal_v0_24__pxrReserved__7VtValue9GetTypeidEv.exit: ; preds = %11, %12
  %18 = phi ptr [ %17, %12 ], [ @_ZTIv, %11 ]
  %19 = getelementptr inbounds nuw i8, ptr %18, i64 8
  %20 = load ptr, ptr %19, align 8, !noalias !11
  %21 = load i8, ptr %20, align 1, !noalias !11
  %22 = icmp eq i8 %21, 42
  %.idx.i.i = zext i1 %22 to i64
  %23 = getelementptr inbounds i8, ptr %20, i64 %.idx.i.i
  tail call void @_ZN32pxrInternal_v0_24__pxrReserved__16ArchGetDemangledB5cxx11EPKc(ptr dead_on_unwind writable sret(%"class.std::__cxx11::basic_string") align 8 %0, ptr noundef nonnull %23)
  br label %24

24:                                               ; preds = %_ZNK32pxrInternal_v0_24__pxrReserved__7VtValue9GetTypeidEv.exit, %8
  ret void
}